; Function Attrs: mustprogress nounwind uwtable
define internal fastcc void @_ZL33EmitBitfieldSignChangeCheckHelperPN4llvm5ValueEN5clang8QualTypeES1_S3_RNS2_7CodeGen11CGBuilderTyE(ptr dead_on_unwind noalias nonnull writable writeonly align 8 captures(none) initializes((0, 1), (8, 32)) %0, ptr noundef %1, i64 %2, ptr noundef %3, i64 %4, ptr noundef nonnull align 8 dereferenceable(160) %5) unnamed_addr #0 {
  %7 = alloca %"class.llvm::Twine", align 8
  %8 = tail call fastcc noundef ptr @_ZL24EmitIsNegativeTestHelperPN4llvm5ValueEN5clang8QualTypeEPKcRNS2_7CodeGen11CGBuilderTyE(ptr noundef %1, i64 %2, ptr noundef nonnull @.str.3, ptr noundef nonnull align 8 dereferenceable(160) %5)
  %9 = tail call fastcc noundef ptr @_ZL24EmitIsNegativeTestHelperPN4llvm5ValueEN5clang8QualTypeEPKcRNS2_7CodeGen11CGBuilderTyE(ptr noundef %3, i64 %4, ptr noundef nonnull @.str.4, ptr noundef nonnull align 8 dereferenceable(160) %5)
  %10 = getelementptr inbounds nuw i8, ptr %7, i64 32
  %11 = getelementptr inbounds nuw i8, ptr %7, i64 33
  store i8 1, ptr %11, align 1
  store ptr @.str.5, ptr %7, align 8
  store i8 3, ptr %10, align 8
  %12 = call noundef ptr @_ZN4llvm13IRBuilderBase10CreateICmpENS_7CmpInst9PredicateEPNS_5ValueES4_RKNS_5TwineE(ptr noundef nonnull align 8 dereferenceable(128) %5, i32 noundef 32, ptr noundef %8, ptr noundef %9, ptr noundef nonnull align 8 dereferenceable(34) %7)
  store i8 3, ptr %0, align 8, !alias.scope !7
  %13 = getelementptr inbounds nuw i8, ptr %0, i64 8
  store ptr %12, ptr %13, align 8
  %.sroa.2.0..sroa_idx = getelementptr inbounds nuw i8, ptr %0, i64 16
  call void @llvm.memcpy.p0.p0.i64(ptr noundef nonnull align 8 dereferenceable(16) %.sroa.2.0..sroa_idx, ptr noundef nonnull align 8 dereferenceable(16) @_ZN5clang13SanitizerKind26ImplicitBitfieldConversionE, i64 16, i1 false)
  ret void
}